target datalayout = "e-m:e-p270:32:32-p271:32:32-p272:64:64-i64:64-i128:128-f80:128-n8:16:32:64-S128"
target triple = "x86_64-pc-linux-gnu"

; Function Attrs: inlinehint nounwind uwtable
define internal zeroext i1 @pmix_check_cli_option(ptr noundef %0, ptr noundef %1) #3 {
  %3 = alloca i1, align 1
  %4 = alloca ptr, align 8
  %5 = alloca ptr, align 8
  %6 = alloca i64, align 8
  %7 = alloca i64, align 8
  %8 = alloca i64, align 8
  %9 = alloca i64, align 8
  %10 = alloca ptr, align 8
  %11 = alloca ptr, align 8
  %12 = alloca i32, align 4
  %13 = alloca i32, align 4
  store ptr %0, ptr %4, align 8, !tbaa !9
  store ptr %1, ptr %5, align 8, !tbaa !9
  call void @llvm.lifetime.start.p0(i64 8, ptr %6) #7
  call void @llvm.lifetime.start.p0(i64 8, ptr %7) #7
  call void @llvm.lifetime.start.p0(i64 8, ptr %8) #7
  call void @llvm.lifetime.start.p0(i64 8, ptr %9) #7
  call void @llvm.lifetime.start.p0(i64 8, ptr %10) #7
  call void @llvm.lifetime.start.p0(i64 8, ptr %11) #7
  call void @llvm.lifetime.start.p0(i64 4, ptr %12) #7
  %14 = load ptr, ptr %5, align 8, !tbaa !9
  %15 = call ptr @strchr(ptr noundef %14, i32 noundef 45) #8
  %16 = icmp ne ptr null, %15
  br i1 %16, label %21, label %17

17:                                               ; preds = %2
  %18 = load ptr, ptr %4, align 8, !tbaa !9
  %19 = call ptr @strchr(ptr noundef %18, i32 noundef 45) #8
  %20 = icmp ne ptr null, %19
  br i1 %20, label %21, label %99

21:                                               ; preds = %17, %2
  %22 = load ptr, ptr %4, align 8, !tbaa !9
  %23 = call ptr @PMIx_Argv_split(ptr noundef %22, i32 noundef 45)
  store ptr %23, ptr %10, align 8, !tbaa !52
  %24 = load ptr, ptr %5, align 8, !tbaa !9
  %25 = call ptr @PMIx_Argv_split(ptr noundef %24, i32 noundef 45)
  store ptr %25, ptr %11, align 8, !tbaa !52
  %26 = load ptr, ptr %10, align 8, !tbaa !52
  %27 = call i32 @PMIx_Argv_count(ptr noundef %26)
  %28 = load ptr, ptr %11, align 8, !tbaa !52
  %29 = call i32 @PMIx_Argv_count(ptr noundef %28)
  %30 = icmp sgt i32 %27, %29
  br i1 %30, label %31, label %34

31:                                               ; preds = %21
  %32 = load ptr, ptr %10, align 8, !tbaa !52
  call void @PMIx_Argv_free(ptr noundef %32)
  %33 = load ptr, ptr %11, align 8, !tbaa !52
  call void @PMIx_Argv_free(ptr noundef %33)
  store i1 false, ptr %3, align 1
  store i32 1, ptr %13, align 4
  br label %120

34:                                               ; preds = %21
  store i32 0, ptr %12, align 4, !tbaa !7
  store i64 0, ptr %9, align 8, !tbaa !58
  br label %35

35:                                               ; preds = %87, %34
  %36 = load ptr, ptr %10, align 8, !tbaa !52
  %37 = load i64, ptr %9, align 8, !tbaa !58
  %38 = getelementptr inbounds nuw ptr, ptr %36, i64 %37
  %39 = load ptr, ptr %38, align 8, !tbaa !9
  %40 = icmp ne ptr null, %39
  br i1 %40, label %41, label %47

41:                                               ; preds = %35
  %42 = load ptr, ptr %11, align 8, !tbaa !52
  %43 = load i64, ptr %9, align 8, !tbaa !58
  %44 = getelementptr inbounds nuw ptr, ptr %42, i64 %43
  %45 = load ptr, ptr %44, align 8, !tbaa !9
  %46 = icmp ne ptr null, %45
  br label %47

47:                                               ; preds = %41, %35
  %48 = phi i1 [ false, %35 ], [ %46, %41 ]
  br i1 %48, label %49, label %90

49:                                               ; preds = %47
  %50 = load ptr, ptr %10, align 8, !tbaa !52
  %51 = load i64, ptr %9, align 8, !tbaa !58
  %52 = getelementptr inbounds nuw ptr, ptr %50, i64 %51
  %53 = load ptr, ptr %52, align 8, !tbaa !9
  %54 = call i64 @strlen(ptr noundef %53) #8
  store i64 %54, ptr %6, align 8, !tbaa !58
  %55 = load ptr, ptr %11, align 8, !tbaa !52
  %56 = load i64, ptr %9, align 8, !tbaa !58
  %57 = getelementptr inbounds nuw ptr, ptr %55, i64 %56
  %58 = load ptr, ptr %57, align 8, !tbaa !9
  %59 = call i64 @strlen(ptr noundef %58) #8
  store i64 %59, ptr %7, align 8, !tbaa !58
  %60 = load i64, ptr %6, align 8, !tbaa !58
  %61 = load i64, ptr %7, align 8, !tbaa !58
  %62 = icmp ult i64 %60, %61
  br i1 %62, label %63, label %65

63:                                               ; preds = %49
  %64 = load i64, ptr %6, align 8, !tbaa !58
  br label %67

65:                                               ; preds = %49
  %66 = load i64, ptr %7, align 8, !tbaa !58
  br label %67

67:                                               ; preds = %65, %63
  %68 = phi i64 [ %64, %63 ], [ %66, %65 ]
  store i64 %68, ptr %8, align 8, !tbaa !58
  %69 = load ptr, ptr %10, align 8, !tbaa !52
  %70 = load i64, ptr %9, align 8, !tbaa !58
  %71 = getelementptr inbounds nuw ptr, ptr %69, i64 %70
  %72 = load ptr, ptr %71, align 8, !tbaa !9
  %73 = load ptr, ptr %11, align 8, !tbaa !52
  %74 = load i64, ptr %9, align 8, !tbaa !58
  %75 = getelementptr inbounds nuw ptr, ptr %73, i64 %74
  %76 = load ptr, ptr %75, align 8, !tbaa !9
  %77 = load i64, ptr %8, align 8, !tbaa !58
  %78 = call i32 @strncasecmp(ptr noundef %72, ptr noundef %76, i64 noundef %77) #8
  %79 = icmp eq i32 0, %78
  br i1 %79, label %80, label %83

80:                                               ; preds = %67
  %81 = load i32, ptr %12, align 4, !tbaa !7
  %82 = add nsw i32 %81, 1
  store i32 %82, ptr %12, align 4, !tbaa !7
  br label %86

83:                                               ; preds = %67
  %84 = load ptr, ptr %10, align 8, !tbaa !52
  call void @PMIx_Argv_free(ptr noundef %84)
  %85 = load ptr, ptr %11, align 8, !tbaa !52
  call void @PMIx_Argv_free(ptr noundef %85)
  store i1 false, ptr %3, align 1
  store i32 1, ptr %13, align 4
  br label %120

86:                                               ; preds = %80
  br label %87

87:                                               ; preds = %86
  %88 = load i64, ptr %9, align 8, !tbaa !58
  %89 = add i64 %88, 1
  store i64 %89, ptr %9, align 8, !tbaa !58
  br label %35, !llvm.loop !59

90:                                               ; preds = %47
  %91 = load ptr, ptr %10, align 8, !tbaa !52
  call void @PMIx_Argv_free(ptr noundef %91)
  %92 = load ptr, ptr %11, align 8, !tbaa !52
  call void @PMIx_Argv_free(ptr noundef %92)
  %93 = load i32, ptr %12, align 4, !tbaa !7
  %94 = load ptr, ptr %10, align 8, !tbaa !52
  %95 = call i32 @PMIx_Argv_count(ptr noundef %94)
  %96 = icmp eq i32 %93, %95
  br i1 %96, label %97, label %98

97:                                               ; preds = %90
  store i1 true, ptr %3, align 1
  store i32 1, ptr %13, align 4
  br label %120

98:                                               ; preds = %90
  store i1 false, ptr %3, align 1
  store i32 1, ptr %13, align 4
  br label %120

99:                                               ; preds = %17
  %100 = load ptr, ptr %4, align 8, !tbaa !9
  %101 = call i64 @strlen(ptr noundef %100) #8
  store i64 %101, ptr %6, align 8, !tbaa !58
  %102 = load ptr, ptr %5, align 8, !tbaa !9
  %103 = call i64 @strlen(ptr noundef %102) #8
  store i64 %103, ptr %7, align 8, !tbaa !58
  %104 = load i64, ptr %6, align 8, !tbaa !58
  %105 = load i64, ptr %7, align 8, !tbaa !58
  %106 = icmp ult i64 %104, %105
  br i1 %106, label %107, label %109

107:                                              ; preds = %99
  %108 = load i64, ptr %6, align 8, !tbaa !58
  br label %111

109:                                              ; preds = %99
  %110 = load i64, ptr %7, align 8, !tbaa !58
  br label %111

111:                                              ; preds = %109, %107
  %112 = phi i64 [ %108, %107 ], [ %110, %109 ]
  store i64 %112, ptr %8, align 8, !tbaa !58
  %113 = load ptr, ptr %4, align 8, !tbaa !9
  %114 = load ptr, ptr %5, align 8, !tbaa !9
  %115 = load i64, ptr %8, align 8, !tbaa !58
  %116 = call i32 @strncasecmp(ptr noundef %113, ptr noundef %114, i64 noundef %115) #8
  %117 = icmp eq i32 0, %116
  br i1 %117, label %118, label %119

118:                                              ; preds = %111
  store i1 true, ptr %3, align 1
  store i32 1, ptr %13, align 4
  br label %120

119:                                              ; preds = %111
  store i1 false, ptr %3, align 1
  store i32 1, ptr %13, align 4
  br label %120

120:                                              ; preds = %119, %118, %98, %97, %83, %31
  call void @llvm.lifetime.end.p0(i64 4, ptr %12) #7
  call void @llvm.lifetime.end.p0(i64 8, ptr %11) #7
  call void @llvm.lifetime.end.p0(i64 8, ptr %10) #7
  call void @llvm.lifetime.end.p0(i64 8, ptr %9) #7
  call void @llvm.lifetime.end.p0(i64 8, ptr %8) #7
  call void @llvm.lifetime.end.p0(i64 8, ptr %7) #7
  call void @llvm.lifetime.end.p0(i64 8, ptr %6) #7
  %121 = load i1, ptr %3, align 1
  ret i1 %121
}